target datalayout = "e-m:e-p270:32:32-p271:32:32-p272:64:64-i64:64-i128:128-f80:128-n8:16:32:64-S128"
target triple = "x86_64-pc-linux-gnu"

%struct._lv_image_t = type { %struct._lv_obj_t, ptr, ptr, %struct.lv_point_t, i32, i32, i32, i32, i32, %struct.lv_point_t, i16 }
%struct._lv_obj_t = type { ptr, ptr, ptr, ptr, ptr, %struct.lv_area_t, i32, i16, i16 }
%struct.lv_area_t = type { i32, i32, i32, i32 }
%struct.lv_point_t = type { i32, i32 }

; Function Attrs: nounwind uwtable
define void @lv_image_set_scale(ptr noundef %0, i32 noundef %1) #0 {
  %3 = alloca ptr, align 8
  %4 = alloca i32, align 4
  %5 = alloca ptr, align 8
  %6 = alloca i32, align 4
  store ptr %0, ptr %3, align 8, !tbaa !8
  store i32 %1, ptr %4, align 4, !tbaa !28
  br label %7

7:                                                ; preds = %2
  %8 = load ptr, ptr %3, align 8, !tbaa !8
  %9 = icmp ne ptr %8, null
  br i1 %9, label %14, label %10

10:                                               ; preds = %7
  br label %11

11:                                               ; preds = %10
  br label %12

12:                                               ; preds = %11
  br label %13

13:                                               ; preds = %12, %13
  br label %13

14:                                               ; preds = %7
  br label %15

15:                                               ; preds = %14
  call void @llvm.lifetime.start.p0(i64 8, ptr %5) #5
  %16 = load ptr, ptr %3, align 8, !tbaa !8
  store ptr %16, ptr %5, align 8, !tbaa !10
  %17 = load ptr, ptr %5, align 8, !tbaa !10
  %18 = getelementptr inbounds nuw %struct._lv_image_t, ptr %17, i32 0, i32 10
  %19 = load i16, ptr %18, align 4
  %20 = lshr i16 %19, 8
  %21 = and i16 %20, 15
  %22 = zext i16 %21 to i32
  %23 = icmp sgt i32 %22, 10
  br i1 %23, label %24, label %25

24:                                               ; preds = %15
  store i32 1, ptr %6, align 4
  br label %46

25:                                               ; preds = %15
  %26 = load i32, ptr %4, align 4, !tbaa !28
  %27 = load ptr, ptr %5, align 8, !tbaa !10
  %28 = getelementptr inbounds nuw %struct._lv_image_t, ptr %27, i32 0, i32 7
  %29 = load i32, ptr %28, align 4, !tbaa !24
  %30 = icmp eq i32 %26, %29
  br i1 %30, label %31, label %38

31:                                               ; preds = %25
  %32 = load i32, ptr %4, align 4, !tbaa !28
  %33 = load ptr, ptr %5, align 8, !tbaa !10
  %34 = getelementptr inbounds nuw %struct._lv_image_t, ptr %33, i32 0, i32 8
  %35 = load i32, ptr %34, align 8, !tbaa !25
  %36 = icmp eq i32 %32, %35
  br i1 %36, label %37, label %38

37:                                               ; preds = %31
  store i32 1, ptr %6, align 4
  br label %46

38:                                               ; preds = %31, %25
  %39 = load i32, ptr %4, align 4, !tbaa !28
  %40 = icmp eq i32 %39, 0
  br i1 %40, label %41, label %42

41:                                               ; preds = %38
  store i32 1, ptr %4, align 4, !tbaa !28
  br label %42

42:                                               ; preds = %41, %38
  %43 = load ptr, ptr %3, align 8, !tbaa !8
  %44 = load i32, ptr %4, align 4, !tbaa !28
  %45 = load i32, ptr %4, align 4, !tbaa !28
  call void @scale_update(ptr noundef %43, i32 noundef %44, i32 noundef %45)
  store i32 0, ptr %6, align 4
  br label %46

46:                                               ; preds = %42, %37, %24
  call void @llvm.lifetime.end.p0(i64 8, ptr %5) #5
  %47 = load i32, ptr %6, align 4
  switch i32 %47, label %49 [
    i32 0, label %48
    i32 1, label %48
  ]

48:                                               ; preds = %46, %46
  ret void

49:                                               ; preds = %46
  unreachable
}