; Function Attrs: nounwind uwtable
define void @lv_image_set_scale(ptr noundef %0, i32 noundef %1) local_unnamed_addr #0 {
  %.not = icmp eq ptr %0, null
  br i1 %.not, label %.preheader, label %3

.preheader:                                       ; preds = %2, %.preheader
  br label %.preheader

3:                                                ; preds = %2
  %4 = getelementptr inbounds nuw i8, ptr %0, i64 116
  %5 = load i16, ptr %4, align 4
  %6 = and i16 %5, 3840
  %7 = icmp samesign ugt i16 %6, 2560
  br i1 %7, label %17, label %8

8:                                                ; preds = %3
  %9 = getelementptr inbounds nuw i8, ptr %0, i64 100
  %10 = load i32, ptr %9, align 4, !tbaa !20
  %11 = icmp eq i32 %1, %10
  br i1 %11, label %12, label %16

12:                                               ; preds = %8
  %13 = getelementptr inbounds nuw i8, ptr %0, i64 104
  %14 = load i32, ptr %13, align 8, !tbaa !21
  %15 = icmp eq i32 %1, %14
  br i1 %15, label %17, label %16

16:                                               ; preds = %12, %8
  %spec.store.select = tail call i32 @llvm.umax.i32(i32 %1, i32 1)
  tail call fastcc void @scale_update(ptr noundef nonnull %0, i32 noundef %spec.store.select, i32 noundef %spec.store.select)
  br label %17

17:                                               ; preds = %12, %3, %16
  ret void
}